; Function Attrs: nounwind uwtable
define noundef ptr @l_Std_Time_Minute_Ordinal_ofInt(ptr noundef returned %0, ptr noundef readnone captures(none) %1) local_unnamed_addr #0 {
  %3 = ptrtoint ptr %0 to i64
  %4 = and i64 %3, 1
  %.not = icmp eq i64 %4, 0
  br i1 %.not, label %5, label %lean_inc.exit

5:                                                ; preds = %2
  %.val.i = load i32, ptr %0, align 4, !tbaa !5
  %6 = icmp sgt i32 %.val.i, 0
  br i1 %6, label %7, label %9, !prof !10

7:                                                ; preds = %5
  %8 = add nuw i32 %.val.i, 1
  store i32 %8, ptr %0, align 4, !tbaa !5
  br label %lean_inc.exit

9:                                                ; preds = %5
  %.not.i = icmp eq i32 %.val.i, 0
  br i1 %.not.i, label %lean_inc.exit, label %10

10:                                               ; preds = %9
  tail call void @lean_inc_ref_cold(ptr noundef nonnull %0) #4
  br label %lean_inc.exit

lean_inc.exit:                                    ; preds = %10, %9, %7, %2
  ret ptr %0
}